; Function Attrs: nounwind uwtable
define internal noundef zeroext i8 @children(ptr noundef %0, ptr noundef %1) #0 {
  %3 = alloca i32, align 4
  %4 = alloca i32, align 4
  %5 = alloca ptr, align 8
  %6 = alloca ptr, align 8
  %7 = tail call ptr @getEnv() #3
  %8 = tail call ptr @inStream_readThreadGroupRef(ptr noundef %7, ptr noundef %0) #3
  %9 = tail call zeroext i16 @inStream_error(ptr noundef %0) #3
  %.not = icmp eq i16 %9, 0
  br i1 %.not, label %10, label %63

10:                                               ; preds = %2
  tail call void @createLocalRefSpace(ptr noundef %7, i32 noundef 1) #3
  %11 = load ptr, ptr @gdata, align 8
  %12 = getelementptr inbounds i8, ptr %11, i64 528
  %13 = load i32, ptr %12, align 8
  %14 = and i32 %13, 4
  %.not24 = icmp eq i32 %14, 0
  br i1 %.not24, label %16, label %15

15:                                               ; preds = %10
  tail call void @log_message_begin(ptr noundef nonnull @.str.9, ptr noundef nonnull @.str.6, i32 noundef 108) #3
  tail call void (ptr, ...) @log_message_end(ptr noundef nonnull @.str.7, ptr noundef nonnull @.str.10) #3
  %.pre = load ptr, ptr @gdata, align 8
  br label %16

16:                                               ; preds = %10, %15
  %17 = phi ptr [ %11, %10 ], [ %.pre, %15 ]
  %18 = load ptr, ptr %17, align 8
  %19 = load ptr, ptr %18, align 8
  %20 = getelementptr inbounds i8, ptr %19, i64 112
  %21 = load ptr, ptr %20, align 8
  %22 = call i32 %21(ptr noundef nonnull %18, ptr noundef %8, ptr noundef nonnull %3, ptr noundef nonnull %5, ptr noundef nonnull %4, ptr noundef nonnull %6) #3
  %.not25 = icmp eq i32 %22, 0
  br i1 %.not25, label %25, label %23

23:                                               ; preds = %16
  %24 = call zeroext i16 @map2jdwpError(i32 noundef %22) #3
  call void @outStream_setError(ptr noundef %1, i16 noundef zeroext %24) #3
  br label %52

25:                                               ; preds = %16
  %26 = load ptr, ptr %5, align 8
  %27 = load i32, ptr %3, align 4
  %28 = call i32 @filterDebugThreads(ptr noundef %26, i32 noundef %27) #3
  store i32 %28, ptr %3, align 4
  %29 = call zeroext i16 @outStream_writeInt(ptr noundef %1, i32 noundef %28) #3
  %30 = load i32, ptr %3, align 4
  %31 = icmp sgt i32 %30, 0
  br i1 %31, label %.lr.ph, label %._crit_edge

.lr.ph:                                           ; preds = %25, %.lr.ph
  %indvars.iv = phi i64 [ %indvars.iv.next, %.lr.ph ], [ 0, %25 ]
  %32 = load ptr, ptr %5, align 8
  %33 = getelementptr inbounds ptr, ptr %32, i64 %indvars.iv
  %34 = load ptr, ptr %33, align 8
  %35 = call zeroext i16 @outStream_writeObjectRef(ptr noundef %7, ptr noundef %1, ptr noundef %34) #3
  %indvars.iv.next = add nuw nsw i64 %indvars.iv, 1
  %36 = load i32, ptr %3, align 4
  %37 = sext i32 %36 to i64
  %38 = icmp slt i64 %indvars.iv.next, %37
  br i1 %38, label %.lr.ph, label %._crit_edge, !llvm.loop !6

._crit_edge:                                      ; preds = %.lr.ph, %25
  %39 = load i32, ptr %4, align 4
  %40 = call zeroext i16 @outStream_writeInt(ptr noundef %1, i32 noundef %39) #3
  %41 = load i32, ptr %4, align 4
  %42 = icmp sgt i32 %41, 0
  br i1 %42, label %.lr.ph30, label %._crit_edge31

.lr.ph30:                                         ; preds = %._crit_edge, %.lr.ph30
  %indvars.iv33 = phi i64 [ %indvars.iv.next34, %.lr.ph30 ], [ 0, %._crit_edge ]
  %43 = load ptr, ptr %6, align 8
  %44 = getelementptr inbounds ptr, ptr %43, i64 %indvars.iv33
  %45 = load ptr, ptr %44, align 8
  %46 = call zeroext i16 @outStream_writeObjectRef(ptr noundef %7, ptr noundef %1, ptr noundef %45) #3
  %indvars.iv.next34 = add nuw nsw i64 %indvars.iv33, 1
  %47 = load i32, ptr %4, align 4
  %48 = sext i32 %47 to i64
  %49 = icmp slt i64 %indvars.iv.next34, %48
  br i1 %49, label %.lr.ph30, label %._crit_edge31, !llvm.loop !8

._crit_edge31:                                    ; preds = %.lr.ph30, %._crit_edge
  %50 = load ptr, ptr %6, align 8
  call void @jvmtiDeallocate(ptr noundef %50) #3
  %51 = load ptr, ptr %5, align 8
  call void @jvmtiDeallocate(ptr noundef %51) #3
  br label %52

52:                                               ; preds = %._crit_edge31, %23
  %53 = load ptr, ptr @gdata, align 8
  %54 = getelementptr inbounds i8, ptr %53, i64 528
  %55 = load i32, ptr %54, align 8
  %56 = and i32 %55, 2
  %.not26 = icmp eq i32 %56, 0
  br i1 %.not26, label %58, label %57

57:                                               ; preds = %52
  call void @log_message_begin(ptr noundef nonnull @.str.5, ptr noundef nonnull @.str.6, i32 noundef 133) #3
  call void (ptr, ...) @log_message_end(ptr noundef nonnull @.str.7, ptr noundef nonnull @.str.8) #3
  br label %58

58:                                               ; preds = %52, %57
  %59 = load ptr, ptr %7, align 8
  %60 = getelementptr inbounds i8, ptr %59, i64 160
  %61 = load ptr, ptr %60, align 8
  %62 = call ptr %61(ptr noundef nonnull %7, ptr noundef null) #3
  br label %63

63:                                               ; preds = %2, %58
  ret i8 1
}